
mat_mul_int.o:     file format elf32-sparc


Disassembly of section .text:

00000000 <computeCell>:
   0:	92 5a 00 09 	smul  %o0, %o1, %o1
   4:	81 c3 e0 08 	retl 
   8:	90 10 00 09 	mov  %o1, %o0

0000000c <computeSum>:
   c:	92 02 00 09 	add  %o0, %o1, %o1
  10:	81 c3 e0 08 	retl 
  14:	90 10 00 09 	mov  %o1, %o0

Disassembly of section .text.startup:

00000000 <main>:
   0:	9d e3 bd a8 	save  %sp, -600, %sp
   4:	90 10 20 04 	mov  4, %o0
   8:	40 00 00 00 	call  8 <main+0x8>
   c:	ba 10 20 00 	clr  %i5
  10:	a0 07 be 08 	add  %fp, -504, %l0
  14:	b0 07 be 48 	add  %fp, -440, %i0
  18:	b8 07 60 10 	add  %i5, 0x10, %i4
  1c:	40 00 00 00 	call  1c <main+0x1c>
  20:	01 00 00 00 	nop 
  24:	83 3a 20 1f 	sra  %o0, 0x1f, %g1
  28:	81 80 60 00 	wr  %g1, %y
  2c:	01 00 00 00 	nop 
  30:	01 00 00 00 	nop 
  34:	01 00 00 00 	nop 
  38:	84 7a 20 0a 	sdiv  %o0, 0xa, %g2
  3c:	83 28 a0 02 	sll  %g2, 2, %g1
  40:	82 00 40 02 	add  %g1, %g2, %g1
  44:	82 00 40 01 	add  %g1, %g1, %g1
  48:	82 22 00 01 	sub  %o0, %g1, %g1
  4c:	40 00 00 00 	call  4c <main+0x4c>
  50:	c2 24 00 1d 	st  %g1, [ %l0 + %i5 ]
  54:	83 3a 20 1f 	sra  %o0, 0x1f, %g1
  58:	81 80 60 00 	wr  %g1, %y
  5c:	01 00 00 00 	nop 
  60:	01 00 00 00 	nop 
  64:	01 00 00 00 	nop 
  68:	84 7a 20 0a 	sdiv  %o0, 0xa, %g2
  6c:	83 28 a0 02 	sll  %g2, 2, %g1
  70:	82 00 40 02 	add  %g1, %g2, %g1
  74:	82 00 40 01 	add  %g1, %g1, %g1
  78:	82 22 00 01 	sub  %o0, %g1, %g1
  7c:	c2 27 40 18 	st  %g1, [ %i5 + %i0 ]
  80:	ba 07 60 04 	add  %i5, 4, %i5
  84:	80 a7 40 1c 	cmp  %i5, %i4
  88:	12 bf ff e5 	bne  1c <main+0x1c>
  8c:	80 a7 60 40 	cmp  %i5, 0x40
  90:	32 bf ff e3 	bne,a   1c <main+0x1c>
  94:	b8 07 60 10 	add  %i5, 0x10, %i4
  98:	11 00 00 00 	sethi  %hi(0), %o0
  9c:	40 00 00 00 	call  9c <main+0x9c>
  a0:	90 12 20 00 	mov  %o0, %o0	! 0 <main>
  a4:	01 00 00 00 	nop 
  a8:	85 36 00 09 	srl  %i0, %o1, %g2
  ac:	01 00 00 00 	nop 
  b0:	a4 07 be 88 	add  %fp, -376, %l2
  b4:	a8 10 00 10 	mov  %l0, %l4
  b8:	aa 07 be 18 	add  %fp, -488, %l5
  bc:	a2 07 be c8 	add  %fp, -312, %l1
  c0:	ac 10 00 10 	mov  %l0, %l6
  c4:	a6 10 00 12 	mov  %l2, %l3
  c8:	b2 10 20 00 	clr  %i1
  cc:	b4 10 00 18 	mov  %i0, %i2
  d0:	b8 06 40 18 	add  %i1, %i0, %i4
  d4:	ba 10 00 16 	mov  %l6, %i5
  d8:	b6 10 20 00 	clr  %i3
  dc:	d0 07 40 00 	ld  [ %i5 ], %o0
  e0:	40 00 00 00 	call  e0 <main+0xe0>
  e4:	d2 07 00 00 	ld  [ %i4 ], %o1
  e8:	92 10 00 08 	mov  %o0, %o1
  ec:	40 00 00 00 	call  ec <main+0xec>
  f0:	90 10 00 1b 	mov  %i3, %o0
  f4:	ba 07 60 04 	add  %i5, 4, %i5
  f8:	b6 10 00 08 	mov  %o0, %i3
  fc:	80 a7 40 15 	cmp  %i5, %l5
 100:	12 bf ff f7 	bne  dc <main+0xdc>
 104:	b8 07 20 10 	add  %i4, 0x10, %i4
 108:	d0 24 c0 19 	st  %o0, [ %l3 + %i1 ]
 10c:	b2 06 60 04 	add  %i1, 4, %i1
 110:	80 a6 60 10 	cmp  %i1, 0x10
 114:	32 bf ff ef 	bne,a   d0 <main+0xd0>
 118:	b4 10 00 18 	mov  %i0, %i2
 11c:	a6 04 e0 10 	add  %l3, 0x10, %l3
 120:	ac 05 a0 10 	add  %l6, 0x10, %l6
 124:	80 a4 c0 11 	cmp  %l3, %l1
 128:	12 bf ff e8 	bne  c8 <main+0xc8>
 12c:	aa 07 60 10 	add  %i5, 0x10, %l5
 130:	01 00 00 00 	nop 
 134:	85 36 00 09 	srl  %i0, %o1, %g2
 138:	01 00 00 00 	nop 
 13c:	11 00 00 00 	sethi  %hi(0), %o0
 140:	40 00 00 00 	call  140 <main+0x140>
 144:	90 12 20 00 	mov  %o0, %o0	! 0 <main>
 148:	39 00 00 00 	sethi  %hi(0), %i4
 14c:	05 10 4e 82 	sethi  %hi(0x413a0800), %g2
 150:	a0 04 20 40 	add  %l0, 0x40, %l0
 154:	84 10 a2 00 	or  %g2, 0x200, %g2
 158:	b2 17 20 00 	mov  %i4, %i1
 15c:	82 10 20 03 	mov  3, %g1
 160:	aa 10 20 0a 	mov  0xa, %l5
 164:	c4 27 be c8 	st  %g2, [ %fp + -312 ]
 168:	b6 05 20 10 	add  %l4, 0x10, %i3
 16c:	ba 10 00 01 	mov  %g1, %i5
 170:	d4 05 00 00 	ld  [ %l4 ], %o2
 174:	90 04 40 1d 	add  %l1, %i5, %o0
 178:	40 00 00 00 	call  178 <main+0x178>
 17c:	92 10 00 19 	mov  %i1, %o1
 180:	a8 05 20 04 	add  %l4, 4, %l4
 184:	80 a5 00 1b 	cmp  %l4, %i3
 188:	12 bf ff fa 	bne  170 <main+0x170>
 18c:	ba 07 40 08 	add  %i5, %o0, %i5
 190:	ea 2c 40 1d 	stb  %l5, [ %l1 + %i5 ]
 194:	82 04 40 1d 	add  %l1, %i5, %g1
 198:	c0 28 60 01 	clrb  [ %g1 + 1 ]
 19c:	80 a5 00 10 	cmp  %l4, %l0
 1a0:	12 bf ff f2 	bne  168 <main+0x168>
 1a4:	82 07 60 01 	add  %i5, 1, %g1
 1a8:	84 10 20 42 	mov  0x42, %g2
 1ac:	c4 2c 40 01 	stb  %g2, [ %l1 + %g1 ]
 1b0:	82 04 40 01 	add  %l1, %g1, %g1
 1b4:	84 10 20 3a 	mov  0x3a, %g2
 1b8:	ea 28 60 02 	stb  %l5, [ %g1 + 2 ]
 1bc:	c4 28 60 01 	stb  %g2, [ %g1 + 1 ]
 1c0:	c0 28 60 03 	clrb  [ %g1 + 3 ]
 1c4:	b0 06 20 40 	add  %i0, 0x40, %i0
 1c8:	82 07 60 04 	add  %i5, 4, %g1
 1cc:	b2 17 20 00 	mov  %i4, %i1
 1d0:	a0 10 20 0a 	mov  0xa, %l0
 1d4:	b6 06 a0 10 	add  %i2, 0x10, %i3
 1d8:	ba 10 00 01 	mov  %g1, %i5
 1dc:	d4 06 80 00 	ld  [ %i2 ], %o2
 1e0:	90 04 40 1d 	add  %l1, %i5, %o0
 1e4:	40 00 00 00 	call  1e4 <main+0x1e4>
 1e8:	92 10 00 19 	mov  %i1, %o1
 1ec:	b4 06 a0 04 	add  %i2, 4, %i2
 1f0:	80 a6 80 1b 	cmp  %i2, %i3
 1f4:	12 bf ff fa 	bne  1dc <main+0x1dc>
 1f8:	ba 07 40 08 	add  %i5, %o0, %i5
 1fc:	e0 2c 40 1d 	stb  %l0, [ %l1 + %i5 ]
 200:	82 04 40 1d 	add  %l1, %i5, %g1
 204:	c0 28 60 01 	clrb  [ %g1 + 1 ]
 208:	80 a6 80 18 	cmp  %i2, %i0
 20c:	12 bf ff f2 	bne  1d4 <main+0x1d4>
 210:	82 07 60 01 	add  %i5, 1, %g1
 214:	84 10 20 43 	mov  0x43, %g2
 218:	c4 2c 40 01 	stb  %g2, [ %l1 + %g1 ]
 21c:	ba 07 60 04 	add  %i5, 4, %i5
 220:	82 04 40 01 	add  %l1, %g1, %g1
 224:	84 10 20 3a 	mov  0x3a, %g2
 228:	e0 28 60 02 	stb  %l0, [ %g1 + 2 ]
 22c:	c4 28 60 01 	stb  %g2, [ %g1 + 1 ]
 230:	c0 28 60 03 	clrb  [ %g1 + 3 ]
 234:	b8 17 20 00 	mov  %i4, %i4
 238:	b4 10 20 0a 	mov  0xa, %i2
 23c:	b6 04 a0 10 	add  %l2, 0x10, %i3
 240:	d4 04 80 00 	ld  [ %l2 ], %o2
 244:	90 04 40 1d 	add  %l1, %i5, %o0
 248:	40 00 00 00 	call  248 <main+0x248>
 24c:	92 10 00 1c 	mov  %i4, %o1
 250:	a4 04 a0 04 	add  %l2, 4, %l2
 254:	80 a4 80 1b 	cmp  %l2, %i3
 258:	12 bf ff fa 	bne  240 <main+0x240>
 25c:	ba 07 40 08 	add  %i5, %o0, %i5
 260:	f4 2c 40 1d 	stb  %i2, [ %l1 + %i5 ]
 264:	82 04 40 1d 	add  %l1, %i5, %g1
 268:	c0 28 60 01 	clrb  [ %g1 + 1 ]
 26c:	80 a4 80 13 	cmp  %l2, %l3
 270:	12 bf ff f3 	bne  23c <main+0x23c>
 274:	ba 07 60 01 	inc  %i5
 278:	40 00 00 00 	call  278 <main+0x278>
 27c:	90 10 00 11 	mov  %l1, %o0
 280:	b0 10 20 00 	clr  %i0
 284:	11 00 00 00 	sethi  %hi(0), %o0
 288:	40 00 00 00 	call  288 <main+0x288>
 28c:	90 12 20 00 	mov  %o0, %o0	! 0 <main>
 290:	81 c7 e0 08 	ret 
 294:	81 e8 00 00 	restore 
