
mat_mul.o:     file format elf32-sparc


Disassembly of section .text:

00000000 <computeCell>:
   0:	92 5a 00 09 	smul  %o0, %o1, %o1
   4:	80 a2 60 ff 	cmp  %o1, 0xff
   8:	34 80 00 02 	bg,a   10 <computeCell+0x10>
   c:	92 10 20 ff 	mov  0xff, %o1
  10:	81 c3 e0 08 	retl 
  14:	90 10 00 09 	mov  %o1, %o0

00000018 <computeSum>:
  18:	92 02 00 09 	add  %o0, %o1, %o1
  1c:	80 a2 60 ff 	cmp  %o1, 0xff
  20:	34 80 00 02 	bg,a   28 <computeSum+0x10>
  24:	92 10 20 ff 	mov  0xff, %o1
  28:	81 c3 e0 08 	retl 
  2c:	90 10 00 09 	mov  %o1, %o0

Disassembly of section .text.startup:

00000000 <main>:
   0:	9d e3 ba 38 	save  %sp, -1480, %sp
   4:	90 10 20 08 	mov  8, %o0
   8:	40 00 00 00 	call  8 <main+0x8>
   c:	ba 10 20 00 	clr  %i5
  10:	a4 07 ba 98 	add  %fp, -1384, %l2
  14:	b0 07 ba d8 	add  %fp, -1320, %i0
  18:	b6 07 60 08 	add  %i5, 8, %i3
  1c:	40 00 00 00 	call  1c <main+0x1c>
  20:	01 00 00 00 	nop 
  24:	83 3a 20 1f 	sra  %o0, 0x1f, %g1
  28:	81 80 60 00 	wr  %g1, %y
  2c:	01 00 00 00 	nop 
  30:	01 00 00 00 	nop 
  34:	01 00 00 00 	nop 
  38:	84 7a 20 0a 	sdiv  %o0, 0xa, %g2
  3c:	83 28 a0 02 	sll  %g2, 2, %g1
  40:	82 00 40 02 	add  %g1, %g2, %g1
  44:	82 00 40 01 	add  %g1, %g1, %g1
  48:	82 22 00 01 	sub  %o0, %g1, %g1
  4c:	40 00 00 00 	call  4c <main+0x4c>
  50:	c2 2c 80 1d 	stb  %g1, [ %l2 + %i5 ]
  54:	83 3a 20 1f 	sra  %o0, 0x1f, %g1
  58:	81 80 60 00 	wr  %g1, %y
  5c:	01 00 00 00 	nop 
  60:	01 00 00 00 	nop 
  64:	01 00 00 00 	nop 
  68:	84 7a 20 0a 	sdiv  %o0, 0xa, %g2
  6c:	83 28 a0 02 	sll  %g2, 2, %g1
  70:	82 00 40 02 	add  %g1, %g2, %g1
  74:	82 00 40 01 	add  %g1, %g1, %g1
  78:	82 22 00 01 	sub  %o0, %g1, %g1
  7c:	c2 2f 40 18 	stb  %g1, [ %i5 + %i0 ]
  80:	ba 07 60 01 	inc  %i5
  84:	80 a7 40 1b 	cmp  %i5, %i3
  88:	12 bf ff e5 	bne  1c <main+0x1c>
  8c:	80 a7 60 40 	cmp  %i5, 0x40
  90:	12 bf ff e3 	bne  1c <main+0x1c>
  94:	b6 07 60 08 	add  %i5, 8, %i3
  98:	11 00 00 00 	sethi  %hi(0), %o0
  9c:	40 00 00 00 	call  9c <main+0x9c>
  a0:	90 12 20 00 	mov  %o0, %o0	! 0 <main>
  a4:	01 00 00 00 	nop 
  a8:	85 36 00 09 	srl  %i0, %o1, %g2
  ac:	01 00 00 00 	nop 
  b0:	a0 07 bb 18 	add  %fp, -1256, %l0
  b4:	b4 10 00 12 	mov  %l2, %i2
  b8:	a6 10 00 10 	mov  %l0, %l3
  bc:	b2 10 20 00 	clr  %i1
  c0:	a2 10 00 18 	mov  %i0, %l1
  c4:	b8 06 00 19 	add  %i0, %i1, %i4
  c8:	ba 10 20 00 	clr  %i5
  cc:	b6 10 20 00 	clr  %i3
  d0:	d2 0f 00 00 	ldub  [ %i4 ], %o1
  d4:	40 00 00 00 	call  d4 <main+0xd4>
  d8:	d0 0e 80 1d 	ldub  [ %i2 + %i5 ], %o0
  dc:	92 10 00 08 	mov  %o0, %o1
  e0:	40 00 00 00 	call  e0 <main+0xe0>
  e4:	90 10 00 1b 	mov  %i3, %o0
  e8:	ba 07 60 01 	inc  %i5
  ec:	b6 10 00 08 	mov  %o0, %i3
  f0:	80 a7 60 08 	cmp  %i5, 8
  f4:	12 bf ff f7 	bne  d0 <main+0xd0>
  f8:	b8 07 20 08 	add  %i4, 8, %i4
  fc:	d0 2c c0 19 	stb  %o0, [ %l3 + %i1 ]
 100:	b2 06 60 01 	inc  %i1
 104:	80 a6 60 08 	cmp  %i1, 8
 108:	32 bf ff ef 	bne,a   c4 <main+0xc4>
 10c:	a2 10 00 18 	mov  %i0, %l1
 110:	b4 06 a0 08 	add  %i2, 8, %i2
 114:	80 a6 80 18 	cmp  %i2, %i0
 118:	12 bf ff e9 	bne  bc <main+0xbc>
 11c:	a6 04 e0 08 	add  %l3, 8, %l3
 120:	01 00 00 00 	nop 
 124:	85 36 00 09 	srl  %i0, %o1, %g2
 128:	01 00 00 00 	nop 
 12c:	11 00 00 00 	sethi  %hi(0), %o0
 130:	40 00 00 00 	call  130 <main+0x130>
 134:	90 12 20 00 	mov  %o0, %o0	! 0 <main>
 138:	33 00 00 00 	sethi  %hi(0), %i1
 13c:	05 10 4e 82 	sethi  %hi(0x413a0800), %g2
 140:	b6 07 bb 58 	add  %fp, -1192, %i3
 144:	84 10 a2 00 	or  %g2, 0x200, %g2
 148:	a6 16 60 00 	mov  %i1, %l3
 14c:	82 10 20 03 	mov  3, %g1
 150:	a8 10 20 0a 	mov  0xa, %l4
 154:	c4 27 bb 58 	st  %g2, [ %fp + -1192 ]
 158:	b8 10 00 01 	mov  %g1, %i4
 15c:	ba 10 20 00 	clr  %i5
 160:	d4 0c 80 1d 	ldub  [ %l2 + %i5 ], %o2
 164:	90 06 c0 1c 	add  %i3, %i4, %o0
 168:	40 00 00 00 	call  168 <main+0x168>
 16c:	92 10 00 13 	mov  %l3, %o1
 170:	ba 07 60 01 	inc  %i5
 174:	80 a7 60 08 	cmp  %i5, 8
 178:	12 bf ff fa 	bne  160 <main+0x160>
 17c:	b8 07 00 08 	add  %i4, %o0, %i4
 180:	e8 2e c0 1c 	stb  %l4, [ %i3 + %i4 ]
 184:	82 06 c0 1c 	add  %i3, %i4, %g1
 188:	c0 28 60 01 	clrb  [ %g1 + 1 ]
 18c:	a4 04 a0 08 	add  %l2, 8, %l2
 190:	80 a4 80 1a 	cmp  %l2, %i2
 194:	12 bf ff f1 	bne  158 <main+0x158>
 198:	82 07 20 01 	add  %i4, 1, %g1
 19c:	84 10 20 42 	mov  0x42, %g2
 1a0:	c4 2e c0 01 	stb  %g2, [ %i3 + %g1 ]
 1a4:	b8 07 20 04 	add  %i4, 4, %i4
 1a8:	82 06 c0 01 	add  %i3, %g1, %g1
 1ac:	84 10 20 3a 	mov  0x3a, %g2
 1b0:	e8 28 60 02 	stb  %l4, [ %g1 + 2 ]
 1b4:	c4 28 60 01 	stb  %g2, [ %g1 + 1 ]
 1b8:	c0 28 60 03 	clrb  [ %g1 + 3 ]
 1bc:	b0 06 20 40 	add  %i0, 0x40, %i0
 1c0:	b4 16 60 00 	mov  %i1, %i2
 1c4:	a4 10 20 0a 	mov  0xa, %l2
 1c8:	ba 10 00 1c 	mov  %i4, %i5
 1cc:	b8 10 20 00 	clr  %i4
 1d0:	d4 0c 40 1c 	ldub  [ %l1 + %i4 ], %o2
 1d4:	90 06 c0 1d 	add  %i3, %i5, %o0
 1d8:	40 00 00 00 	call  1d8 <main+0x1d8>
 1dc:	92 10 00 1a 	mov  %i2, %o1
 1e0:	b8 07 20 01 	inc  %i4
 1e4:	80 a7 20 08 	cmp  %i4, 8
 1e8:	12 bf ff fa 	bne  1d0 <main+0x1d0>
 1ec:	ba 07 40 08 	add  %i5, %o0, %i5
 1f0:	e4 2e c0 1d 	stb  %l2, [ %i3 + %i5 ]
 1f4:	82 06 c0 1d 	add  %i3, %i5, %g1
 1f8:	c0 28 60 01 	clrb  [ %g1 + 1 ]
 1fc:	a2 04 60 08 	add  %l1, 8, %l1
 200:	80 a4 40 18 	cmp  %l1, %i0
 204:	12 bf ff f1 	bne  1c8 <main+0x1c8>
 208:	b8 07 60 01 	add  %i5, 1, %i4
 20c:	82 10 20 43 	mov  0x43, %g1
 210:	c2 2e c0 1c 	stb  %g1, [ %i3 + %i4 ]
 214:	ba 07 60 04 	add  %i5, 4, %i5
 218:	b8 06 c0 1c 	add  %i3, %i4, %i4
 21c:	82 10 20 3a 	mov  0x3a, %g1
 220:	e4 2f 20 02 	stb  %l2, [ %i4 + 2 ]
 224:	c2 2f 20 01 	stb  %g1, [ %i4 + 1 ]
 228:	c0 2f 20 03 	clrb  [ %i4 + 3 ]
 22c:	b0 04 20 40 	add  %l0, 0x40, %i0
 230:	b2 16 60 00 	mov  %i1, %i1
 234:	b4 10 20 0a 	mov  0xa, %i2
 238:	b8 10 20 00 	clr  %i4
 23c:	d4 0c 00 1c 	ldub  [ %l0 + %i4 ], %o2
 240:	90 06 c0 1d 	add  %i3, %i5, %o0
 244:	40 00 00 00 	call  244 <main+0x244>
 248:	92 10 00 19 	mov  %i1, %o1
 24c:	b8 07 20 01 	inc  %i4
 250:	80 a7 20 08 	cmp  %i4, 8
 254:	12 bf ff fa 	bne  23c <main+0x23c>
 258:	ba 07 40 08 	add  %i5, %o0, %i5
 25c:	f4 2e c0 1d 	stb  %i2, [ %i3 + %i5 ]
 260:	82 06 c0 1d 	add  %i3, %i5, %g1
 264:	c0 28 60 01 	clrb  [ %g1 + 1 ]
 268:	a0 04 20 08 	add  %l0, 8, %l0
 26c:	80 a6 00 10 	cmp  %i0, %l0
 270:	12 bf ff f2 	bne  238 <main+0x238>
 274:	ba 07 60 01 	inc  %i5
 278:	40 00 00 00 	call  278 <main+0x278>
 27c:	90 10 00 1b 	mov  %i3, %o0
 280:	b0 10 20 00 	clr  %i0
 284:	11 00 00 00 	sethi  %hi(0), %o0
 288:	40 00 00 00 	call  288 <main+0x288>
 28c:	90 12 20 00 	mov  %o0, %o0	! 0 <main>
 290:	81 c7 e0 08 	ret 
 294:	81 e8 00 00 	restore 
